; Function Attrs: mustprogress nofree norecurse nosync nounwind willreturn memory(read, inaccessiblemem: none) uwtable
define dso_local noundef zeroext i1 @_ZNK4Luau14NormalizedType7hasTopsEv(ptr noundef nonnull readonly align 8 captures(none) dereferenceable(401) %0) local_unnamed_addr #9 align 2 {
  %2 = load ptr, ptr %0, align 8, !tbaa !114
  %.not.i.i = icmp eq ptr %2, null
  br i1 %.not.i.i, label %_ZN4Luau3getINS_9NeverTypeEEEPKT_PKNS_4TypeE.exit, label %3

3:                                                ; preds = %1
  %4 = load i32, ptr %2, align 8, !tbaa !52
  %5 = icmp ne i32 %4, 17
  br label %_ZN4Luau3getINS_9NeverTypeEEEPKT_PKNS_4TypeE.exit

_ZN4Luau3getINS_9NeverTypeEEEPKT_PKNS_4TypeE.exit: ; preds = %1, %3
  %.not = phi i1 [ %5, %3 ], [ true, %1 ]
  ret i1 %.not
}